; Function Attrs: inlinehint nounwind uwtable
define internal fastcc range(i32 0, 13) i32 @Texture_GetBlockWidth(i32 noundef %0) unnamed_addr #10 {
  %switch.tableidx = add i32 %0, -1
  %2 = icmp ult i32 %switch.tableidx, 104
  br i1 %2, label %switch.lookup, label %.preheader

.preheader:                                       ; preds = %1, %.preheader
  %3 = tail call i32 @SDL_ReportAssertion_REAL(ptr noundef nonnull @Texture_GetBlockWidth.sdl_assert_data, ptr noundef nonnull @__func__.Texture_GetBlockWidth, ptr noundef nonnull @.str.386, i32 noundef 224) #7
  switch i32 %3, label %.thread [
    i32 0, label %.preheader
    i32 1, label %4
  ]

4:                                                ; preds = %.preheader
  tail call void @llvm.debugtrap()
  br label %.thread

switch.lookup:                                    ; preds = %1
  %5 = zext nneg i32 %switch.tableidx to i64
  %switch.gep = getelementptr inbounds nuw [104 x i32], ptr @switch.table.Texture_GetBlockWidth, i64 0, i64 %5
  %switch.load = load i32, ptr %switch.gep, align 4
  br label %.thread

.thread:                                          ; preds = %.preheader, %switch.lookup, %4
  %.05 = phi i32 [ 0, %4 ], [ %switch.load, %switch.lookup ], [ 0, %.preheader ]
  ret i32 %.05
}